(dp0
S'\x87'
p1
I78
sS'\x9f'
p2
I84
sS' '
p3
I1
sS'\xa7'
p4
I86
sS'('
p5
I5
sS'\xab'
p6
I87
sS','
p7
I9
sS'0'
p8
I13
sS'4'
p9
I17
sS'8'
p10
I21
sS'\xbb'
p11
I92
sS'\xc3'
p12
I95
sS'D'
p13
I29
sS'H'
p14
I33
sS'L'
p15
I37
sS'P'
p16
I41
sS'T'
p17
I44
sS'X'
p18
I47
sS'`'
p19
I50
sS'd'
p20
I54
sS'h'
p21
I58
sS'l'
p22
I62
sS'p'
p23
I66
sS't'
p24
I70
sS'\x80'
p25
I76
sS'\x94'
p26
I79
sS'\x9c'
p27
I82
sS"'"
p28
I4
sS'+'
p29
I8
sS'/'
p30
I12
sS'\xb0'
p31
I89
sS'3'
p32
I16
sS'7'
p33
I20
sS';'
p34
I24
sS'\xbc'
p35
I93
sS'?'
p36
I25
sS'C'
p37
I28
sS'\xc4'
p38
I96
sS'G'
p39
I32
sS'K'
p40
I36
sS'O'
p41
I40
sS'S'
p42
I43
sS'c'
p43
I53
sS'g'
p44
I57
sS'k'
p45
I61
sS'o'
p46
I65
sS's'
p47
I69
sS'w'
p48
I73
sS'\n'
p49
I0
sS'\x99'
p50
I81
sS'"'
p51
I3
sS'*'
p52
I7
sS'.'
p53
I11
sS'\xb1'
p54
I90
sS'2'
p55
I15
sS'6'
p56
I19
sS':'
p57
I23
sS'B'
p58
I27
sS'\xc5'
p59
I97
sS'F'
p60
I31
sS'J'
p61
I35
sS'N'
p62
I39
sS'R'
p63
I42
sS'V'
p64
I46
sS'Z'
p65
I49
sS'b'
p66
I52
sS'f'
p67
I56
sS'j'
p68
I60
sS'n'
p69
I64
sS'r'
p70
I68
sS'v'
p71
I72
sS'z'
p72
I75
sS'\x82'
p73
I77
sS'\x96'
p74
I80
sS'\x9e'
p75
I83
sS'!'
p76
I2
sS'\xa2'
p77
I85
sS')'
p78
I6
sS'-'
p79
I10
sS'\xae'
p80
I88
sS'1'
p81
I14
sS'5'
p82
I18
sS'\xb6'
p83
I91
sS'9'
p84
I22
sS'A'
p85
I26
sS'\xc2'
p86
I94
sS'E'
p87
I30
sS'I'
p88
I34
sS'M'
p89
I38
sS'U'
p90
I45
sS'Y'
p91
I48
sS'a'
p92
I51
sS'\xe2'
p93
I98
sS'e'
p94
I55
sS'i'
p95
I59
sS'm'
p96
I63
sS'q'
p97
I67
sS'u'
p98
I71
sS'y'
p99
I74
s.